target datalayout = "e-m:e-p270:32:32-p271:32:32-p272:64:64-i64:64-i128:128-f80:128-n8:16:32:64-S128"
target triple = "x86_64-pc-linux-gnu"

%struct.H5EA_iblock_t = type { %struct.H5C_cache_entry_t, ptr, ptr, ptr, ptr, i64, i64, ptr, i64, i64, i64 }
%struct.H5C_cache_entry_t = type { ptr, i64, i64, ptr, i8, ptr, i8, i8, i8, i8, i32, i8, i8, i8, i8, i8, i32, ptr, i32, i32, i32, i32, i32, i8, i8, ptr, ptr, ptr, ptr, ptr, ptr, i8, i32, i8, i64, ptr, i64, i64, i32, i8, i32, i32, i8, ptr, ptr, ptr }

@H5EA_init_g = external global i8, align 1
@H5_libterm_g = external global i8, align 1
@.str.5 = private unnamed_addr constant [103 x i8] c"generated/home/dtcxzyw/WorkSpace/Projects/compilers/llvm-opt-benchmark/bench/hdf5/hdf5/src/H5EAcache.c\00", align 1
@H5E_EARRAY_g = external global i64, align 8
@H5E_BADVALUE_g = external global i64, align 8
@H5E_CANTUNDEPEND_g = external global i64, align 8
@.str.16 = private unnamed_addr constant [35 x i8] c"unknown action from metadata cache\00", align 1
@__func__.H5EA__cache_iblock_notify = private unnamed_addr constant [26 x i8] c"H5EA__cache_iblock_notify\00", align 1
@H5E_CANTDEPEND_g = external global i64, align 8
@.str.26 = private unnamed_addr constant [81 x i8] c"unable to create flush dependency between index block and header, address = %llu\00", align 1
@.str.27 = private unnamed_addr constant [82 x i8] c"unable to destroy flush dependency between index block and header, address = %llu\00", align 1
@.str.28 = private unnamed_addr constant [88 x i8] c"unable to destroy flush dependency between index block and extensible array 'top' proxy\00", align 1

; Function Attrs: nounwind uwtable
define internal i32 @H5EA__cache_iblock_notify(i32 noundef %0, ptr noundef %1) #0 {
  %3 = alloca i32, align 4
  %4 = alloca ptr, align 8
  %5 = alloca ptr, align 8
  %6 = alloca i32, align 4
  %7 = alloca i8, align 1
  store i32 %0, ptr %3, align 4, !tbaa !22
  store ptr %1, ptr %4, align 8, !tbaa !3
  call void @llvm.lifetime.start.p0(i64 8, ptr %5) #8
  %8 = load ptr, ptr %4, align 8, !tbaa !3
  store ptr %8, ptr %5, align 8, !tbaa !99
  call void @llvm.lifetime.start.p0(i64 4, ptr %6) #8
  store i32 0, ptr %6, align 4, !tbaa !22
  call void @llvm.lifetime.start.p0(i64 1, ptr %7) #8
  store i8 0, ptr %7, align 1, !tbaa !11
  %9 = load i8, ptr @H5EA_init_g, align 1, !tbaa !11, !range !13, !noundef !14
  %10 = trunc i8 %9 to i1
  br i1 %10, label %15, label %11

11:                                               ; preds = %2
  %12 = load i8, ptr @H5_libterm_g, align 1, !tbaa !11, !range !13, !noundef !14
  %13 = trunc i8 %12 to i1
  %14 = xor i1 %13, true
  br label %15

15:                                               ; preds = %11, %2
  %16 = phi i1 [ true, %2 ], [ %14, %11 ]
  %17 = xor i1 %16, true
  %18 = xor i1 %17, true
  %19 = zext i1 %18 to i32
  %20 = sext i32 %19 to i64
  %21 = call i64 @llvm.expect.i64(i64 %20, i64 1)
  %22 = icmp ne i64 %21, 0
  br i1 %22, label %23, label %141

23:                                               ; preds = %15
  %24 = load i32, ptr %3, align 4, !tbaa !22
  switch i32 %24, label %120 [
    i32 0, label %25
    i32 1, label %25
    i32 2, label %55
    i32 4, label %55
    i32 5, label %55
    i32 6, label %55
    i32 7, label %55
    i32 8, label %55
    i32 9, label %55
    i32 3, label %56
  ]

25:                                               ; preds = %23, %23
  %26 = load ptr, ptr %5, align 8, !tbaa !99
  %27 = getelementptr inbounds nuw %struct.H5EA_iblock_t, ptr %26, i32 0, i32 4
  %28 = load ptr, ptr %27, align 8, !tbaa !71
  %29 = load ptr, ptr %5, align 8, !tbaa !99
  %30 = call i32 @H5EA__create_flush_depend(ptr noundef %28, ptr noundef %29)
  %31 = icmp slt i32 %30, 0
  br i1 %31, label %32, label %54

32:                                               ; preds = %25
  br label %33

33:                                               ; preds = %32
  br label %34

34:                                               ; preds = %33
  br label %35

35:                                               ; preds = %34
  %36 = load i64, ptr @H5E_EARRAY_g, align 8, !tbaa !19
  %37 = load i64, ptr @H5E_CANTDEPEND_g, align 8, !tbaa !19
  %38 = load ptr, ptr %5, align 8, !tbaa !99
  %39 = getelementptr inbounds nuw %struct.H5EA_iblock_t, ptr %38, i32 0, i32 5
  %40 = load i64, ptr %39, align 8, !tbaa !101
  %41 = call i32 (ptr, ptr, i32, i64, i64, ptr, ...) @H5E_printf_stack(ptr noundef @.str.5, ptr noundef @__func__.H5EA__cache_iblock_notify, i32 noundef 903, i64 noundef %36, i64 noundef %37, ptr noundef @.str.26, i64 noundef %40)
  br label %42

42:                                               ; preds = %35
  br label %43

43:                                               ; preds = %42
  store i8 1, ptr %7, align 1, !tbaa !11
  %44 = load i8, ptr %7, align 1, !tbaa !11, !range !13, !noundef !14
  %45 = trunc i8 %44 to i1
  %46 = zext i1 %45 to i8
  store i8 %46, ptr %7, align 1, !tbaa !11
  br label %47

47:                                               ; preds = %43
  br label %48

48:                                               ; preds = %47
  br label %49

49:                                               ; preds = %48
  store i32 -1, ptr %6, align 4, !tbaa !22
  br label %140

50:                                               ; No predecessors!
  br label %51

51:                                               ; preds = %50
  br label %52

52:                                               ; preds = %51
  br label %53

53:                                               ; preds = %52
  br label %54

54:                                               ; preds = %53, %25
  br label %139

55:                                               ; preds = %23, %23, %23, %23, %23, %23, %23
  br label %139

56:                                               ; preds = %23
  %57 = load ptr, ptr %5, align 8, !tbaa !99
  %58 = getelementptr inbounds nuw %struct.H5EA_iblock_t, ptr %57, i32 0, i32 4
  %59 = load ptr, ptr %58, align 8, !tbaa !71
  %60 = load ptr, ptr %5, align 8, !tbaa !99
  %61 = call i32 @H5EA__destroy_flush_depend(ptr noundef %59, ptr noundef %60)
  %62 = icmp slt i32 %61, 0
  br i1 %62, label %63, label %85

63:                                               ; preds = %56
  br label %64

64:                                               ; preds = %63
  br label %65

65:                                               ; preds = %64
  br label %66

66:                                               ; preds = %65
  %67 = load i64, ptr @H5E_EARRAY_g, align 8, !tbaa !19
  %68 = load i64, ptr @H5E_CANTUNDEPEND_g, align 8, !tbaa !19
  %69 = load ptr, ptr %5, align 8, !tbaa !99
  %70 = getelementptr inbounds nuw %struct.H5EA_iblock_t, ptr %69, i32 0, i32 5
  %71 = load i64, ptr %70, align 8, !tbaa !101
  %72 = call i32 (ptr, ptr, i32, i64, i64, ptr, ...) @H5E_printf_stack(ptr noundef @.str.5, ptr noundef @__func__.H5EA__cache_iblock_notify, i32 noundef 922, i64 noundef %67, i64 noundef %68, ptr noundef @.str.27, i64 noundef %71)
  br label %73

73:                                               ; preds = %66
  br label %74

74:                                               ; preds = %73
  store i8 1, ptr %7, align 1, !tbaa !11
  %75 = load i8, ptr %7, align 1, !tbaa !11, !range !13, !noundef !14
  %76 = trunc i8 %75 to i1
  %77 = zext i1 %76 to i8
  store i8 %77, ptr %7, align 1, !tbaa !11
  br label %78

78:                                               ; preds = %74
  br label %79

79:                                               ; preds = %78
  br label %80

80:                                               ; preds = %79
  store i32 -1, ptr %6, align 4, !tbaa !22
  br label %140

81:                                               ; No predecessors!
  br label %82

82:                                               ; preds = %81
  br label %83

83:                                               ; preds = %82
  br label %84

84:                                               ; preds = %83
  br label %85

85:                                               ; preds = %84, %56
  %86 = load ptr, ptr %5, align 8, !tbaa !99
  %87 = getelementptr inbounds nuw %struct.H5EA_iblock_t, ptr %86, i32 0, i32 7
  %88 = load ptr, ptr %87, align 8, !tbaa !114
  %89 = icmp ne ptr %88, null
  br i1 %89, label %90, label %119

90:                                               ; preds = %85
  %91 = load ptr, ptr %5, align 8, !tbaa !99
  %92 = getelementptr inbounds nuw %struct.H5EA_iblock_t, ptr %91, i32 0, i32 7
  %93 = load ptr, ptr %92, align 8, !tbaa !114
  %94 = load ptr, ptr %5, align 8, !tbaa !99
  %95 = call i32 @H5AC_proxy_entry_remove_child(ptr noundef %93, ptr noundef %94)
  %96 = icmp slt i32 %95, 0
  br i1 %96, label %97, label %116

97:                                               ; preds = %90
  br label %98

98:                                               ; preds = %97
  br label %99

99:                                               ; preds = %98
  br label %100

100:                                              ; preds = %99
  %101 = load i64, ptr @H5E_EARRAY_g, align 8, !tbaa !19
  %102 = load i64, ptr @H5E_CANTUNDEPEND_g, align 8, !tbaa !19
  %103 = call i32 (ptr, ptr, i32, i64, i64, ptr, ...) @H5E_printf_stack(ptr noundef @.str.5, ptr noundef @__func__.H5EA__cache_iblock_notify, i32 noundef 929, i64 noundef %101, i64 noundef %102, ptr noundef @.str.28)
  br label %104

104:                                              ; preds = %100
  br label %105

105:                                              ; preds = %104
  store i8 1, ptr %7, align 1, !tbaa !11
  %106 = load i8, ptr %7, align 1, !tbaa !11, !range !13, !noundef !14
  %107 = trunc i8 %106 to i1
  %108 = zext i1 %107 to i8
  store i8 %108, ptr %7, align 1, !tbaa !11
  br label %109

109:                                              ; preds = %105
  br label %110

110:                                              ; preds = %109
  br label %111

111:                                              ; preds = %110
  store i32 -1, ptr %6, align 4, !tbaa !22
  br label %140

112:                                              ; No predecessors!
  br label %113

113:                                              ; preds = %112
  br label %114

114:                                              ; preds = %113
  br label %115

115:                                              ; preds = %114
  br label %116

116:                                              ; preds = %115, %90
  %117 = load ptr, ptr %5, align 8, !tbaa !99
  %118 = getelementptr inbounds nuw %struct.H5EA_iblock_t, ptr %117, i32 0, i32 7
  store ptr null, ptr %118, align 8, !tbaa !114
  br label %119

119:                                              ; preds = %116, %85
  br label %139

120:                                              ; preds = %23
  br label %121

121:                                              ; preds = %120
  br label %122

122:                                              ; preds = %121
  br label %123

123:                                              ; preds = %122
  %124 = load i64, ptr @H5E_EARRAY_g, align 8, !tbaa !19
  %125 = load i64, ptr @H5E_BADVALUE_g, align 8, !tbaa !19
  %126 = call i32 (ptr, ptr, i32, i64, i64, ptr, ...) @H5E_printf_stack(ptr noundef @.str.5, ptr noundef @__func__.H5EA__cache_iblock_notify, i32 noundef 936, i64 noundef %124, i64 noundef %125, ptr noundef @.str.16)
  br label %127

127:                                              ; preds = %123
  br label %128

128:                                              ; preds = %127
  store i8 1, ptr %7, align 1, !tbaa !11
  %129 = load i8, ptr %7, align 1, !tbaa !11, !range !13, !noundef !14
  %130 = trunc i8 %129 to i1
  %131 = zext i1 %130 to i8
  store i8 %131, ptr %7, align 1, !tbaa !11
  br label %132

132:                                              ; preds = %128
  br label %133

133:                                              ; preds = %132
  br label %134

134:                                              ; preds = %133
  store i32 -1, ptr %6, align 4, !tbaa !22
  br label %140

135:                                              ; No predecessors!
  br label %136

136:                                              ; preds = %135
  br label %137

137:                                              ; preds = %136
  br label %138

138:                                              ; preds = %137
  br label %139

139:                                              ; preds = %138, %119, %55, %54
  br label %140

140:                                              ; preds = %139, %134, %111, %80, %49
  br label %141

141:                                              ; preds = %140, %15
  %142 = load i32, ptr %6, align 4, !tbaa !22
  call void @llvm.lifetime.end.p0(i64 1, ptr %7) #8
  call void @llvm.lifetime.end.p0(i64 4, ptr %6) #8
  call void @llvm.lifetime.end.p0(i64 8, ptr %5) #8
  ret i32 %142
}