; Function Attrs: nounwind uwtable
define internal range(i32 -1, 1) i32 @H5EA__cache_iblock_notify(i32 noundef %0, ptr noundef %1) #0 {
  %3 = load i8, ptr @H5EA_init_g, align 1, !tbaa !3, !range !7, !noundef !8
  %4 = trunc nuw i8 %3 to i1
  %5 = load i8, ptr @H5_libterm_g, align 1, !range !7
  %6 = trunc nuw i8 %5 to i1
  %7 = xor i1 %6, true
  %8 = select i1 %4, i1 true, i1 %7
  br i1 %8, label %9, label %47, !prof !9

9:                                                ; preds = %2
  switch i32 %0, label %43 [
    i32 0, label %10
    i32 1, label %10
    i32 2, label %47
    i32 4, label %47
    i32 5, label %47
    i32 6, label %47
    i32 7, label %47
    i32 8, label %47
    i32 9, label %47
    i32 3, label %21
  ]

10:                                               ; preds = %9, %9
  %11 = getelementptr inbounds nuw i8, ptr %1, i64 272
  %12 = load ptr, ptr %11, align 8, !tbaa !94
  %13 = tail call i32 @H5EA__create_flush_depend(ptr noundef %12, ptr noundef %1) #6
  %14 = icmp slt i32 %13, 0
  br i1 %14, label %15, label %47

15:                                               ; preds = %10
  %16 = load i64, ptr @H5E_EARRAY_g, align 8, !tbaa !15
  %17 = load i64, ptr @H5E_CANTDEPEND_g, align 8, !tbaa !15
  %18 = getelementptr inbounds nuw i8, ptr %1, i64 280
  %19 = load i64, ptr %18, align 8, !tbaa !80
  %20 = tail call i32 (ptr, ptr, i32, i64, i64, ptr, ...) @H5E_printf_stack(ptr noundef nonnull @.str.5, ptr noundef nonnull @__func__.H5EA__cache_iblock_notify, i32 noundef 903, i64 noundef %16, i64 noundef %17, ptr noundef nonnull @.str.26, i64 noundef %19) #6
  br label %47

21:                                               ; preds = %9
  %22 = getelementptr inbounds nuw i8, ptr %1, i64 272
  %23 = load ptr, ptr %22, align 8, !tbaa !94
  %24 = tail call i32 @H5EA__destroy_flush_depend(ptr noundef %23, ptr noundef %1) #6
  %25 = icmp slt i32 %24, 0
  br i1 %25, label %26, label %32

26:                                               ; preds = %21
  %27 = load i64, ptr @H5E_EARRAY_g, align 8, !tbaa !15
  %28 = load i64, ptr @H5E_CANTUNDEPEND_g, align 8, !tbaa !15
  %29 = getelementptr inbounds nuw i8, ptr %1, i64 280
  %30 = load i64, ptr %29, align 8, !tbaa !80
  %31 = tail call i32 (ptr, ptr, i32, i64, i64, ptr, ...) @H5E_printf_stack(ptr noundef nonnull @.str.5, ptr noundef nonnull @__func__.H5EA__cache_iblock_notify, i32 noundef 922, i64 noundef %27, i64 noundef %28, ptr noundef nonnull @.str.27, i64 noundef %30) #6
  br label %47

32:                                               ; preds = %21
  %33 = getelementptr inbounds nuw i8, ptr %1, i64 296
  %34 = load ptr, ptr %33, align 8, !tbaa !98
  %.not = icmp eq ptr %34, null
  br i1 %.not, label %47, label %35

35:                                               ; preds = %32
  %36 = tail call i32 @H5AC_proxy_entry_remove_child(ptr noundef nonnull %34, ptr noundef nonnull %1) #6
  %37 = icmp slt i32 %36, 0
  br i1 %37, label %38, label %42

38:                                               ; preds = %35
  %39 = load i64, ptr @H5E_EARRAY_g, align 8, !tbaa !15
  %40 = load i64, ptr @H5E_CANTUNDEPEND_g, align 8, !tbaa !15
  %41 = tail call i32 (ptr, ptr, i32, i64, i64, ptr, ...) @H5E_printf_stack(ptr noundef nonnull @.str.5, ptr noundef nonnull @__func__.H5EA__cache_iblock_notify, i32 noundef 929, i64 noundef %39, i64 noundef %40, ptr noundef nonnull @.str.28) #6
  br label %47

42:                                               ; preds = %35
  store ptr null, ptr %33, align 8, !tbaa !98
  br label %47

43:                                               ; preds = %9
  %44 = load i64, ptr @H5E_EARRAY_g, align 8, !tbaa !15
  %45 = load i64, ptr @H5E_BADVALUE_g, align 8, !tbaa !15
  %46 = tail call i32 (ptr, ptr, i32, i64, i64, ptr, ...) @H5E_printf_stack(ptr noundef nonnull @.str.5, ptr noundef nonnull @__func__.H5EA__cache_iblock_notify, i32 noundef 936, i64 noundef %44, i64 noundef %45, ptr noundef nonnull @.str.16) #6
  br label %47

47:                                               ; preds = %15, %26, %38, %43, %32, %42, %9, %9, %9, %9, %9, %9, %9, %10, %2
  %.0 = phi i32 [ -1, %43 ], [ -1, %26 ], [ -1, %38 ], [ 0, %42 ], [ 0, %32 ], [ 0, %9 ], [ 0, %9 ], [ 0, %9 ], [ 0, %9 ], [ 0, %9 ], [ 0, %9 ], [ 0, %9 ], [ -1, %15 ], [ 0, %10 ], [ 0, %2 ]
  ret i32 %.0
}